target datalayout = "e-m:e-p270:32:32-p271:32:32-p272:64:64-i64:64-i128:128-f80:128-n8:16:32:64-S128"
target triple = "x86_64-pc-linux-gnu"

%"struct.std::__detail::_Hash_node_base" = type { ptr }
%"struct.std::__detail::_Prime_rehash_policy" = type { float, i64 }
%"struct.std::__detail::_List_node_header" = type { %"struct.std::__detail::_List_node_base", i64 }
%"struct.std::__detail::_List_node_base" = type { ptr, ptr }
%"class.osgeo::proj::BlockCache" = type { %"class.osgeo::proj::lru11::Cache.26" }
%"class.osgeo::proj::lru11::Cache.26" = type { ptr, [8 x i8], %"class.std::unordered_map.27", %"class.std::__cxx11::list.41", i64, i64 }
%"class.std::unordered_map.27" = type { %"class.std::_Hashtable.28" }
%"class.std::_Hashtable.28" = type { ptr, i64, %"struct.std::__detail::_Hash_node_base", i64, %"struct.std::__detail::_Prime_rehash_policy", ptr }
%"class.std::__cxx11::list.41" = type { %"class.std::__cxx11::_List_base.42" }
%"class.std::__cxx11::_List_base.42" = type { %"struct.std::__cxx11::_List_base<osgeo::proj::lru11::KeyValuePair<unsigned long, std::vector<unsigned char>>, std::allocator<osgeo::proj::lru11::KeyValuePair<unsigned long, std::vector<unsigned char>>>>::_List_impl" }
%"struct.std::__cxx11::_List_base<osgeo::proj::lru11::KeyValuePair<unsigned long, std::vector<unsigned char>>, std::allocator<osgeo::proj::lru11::KeyValuePair<unsigned long, std::vector<unsigned char>>>>::_List_impl" = type { %"struct.std::__detail::_List_node_header" }

; Function Attrs: mustprogress uwtable
define hidden void @_ZN5osgeo4proj10BlockCache6insertEjjRKSt6vectorIhSaIhEE(ptr noundef nonnull align 8 dereferenceable(112) %0, i32 noundef %1, i32 noundef %2, ptr noundef nonnull align 8 dereferenceable(24) %3) #1 align 2 {
  %5 = alloca ptr, align 8
  %6 = alloca i32, align 4
  %7 = alloca i32, align 4
  %8 = alloca ptr, align 8
  %9 = alloca i64, align 8
  store ptr %0, ptr %5, align 8, !tbaa !117
  store i32 %1, ptr %6, align 4, !tbaa !26
  store i32 %2, ptr %7, align 4, !tbaa !26
  store ptr %3, ptr %8, align 8, !tbaa !119
  %10 = load ptr, ptr %5, align 8
  %11 = getelementptr inbounds nuw %"class.osgeo::proj::BlockCache", ptr %10, i32 0, i32 0
  call void @llvm.lifetime.start.p0(i64 8, ptr %9) #6
  %12 = load i32, ptr %6, align 4, !tbaa !26
  %13 = zext i32 %12 to i64
  %14 = shl i64 %13, 32
  %15 = load i32, ptr %7, align 4, !tbaa !26
  %16 = zext i32 %15 to i64
  %17 = or i64 %14, %16
  store i64 %17, ptr %9, align 8, !tbaa !58
  %18 = load ptr, ptr %8, align 8, !tbaa !119
  call void @_ZN5osgeo4proj5lru115CacheImSt6vectorIhSaIhEENS1_8NullLockESt13unordered_mapImSt14_List_iteratorINS1_12KeyValuePairImS5_EEESt4hashImESt8equal_toImESaISt4pairIKmSB_EEEE6insertERSH_RKS5_(ptr noundef nonnull align 8 dereferenceable(112) %11, ptr noundef nonnull align 8 dereferenceable(8) %9, ptr noundef nonnull align 8 dereferenceable(24) %18)
  call void @llvm.lifetime.end.p0(i64 8, ptr %9) #6
  ret void
}