; Function Attrs: mustprogress uwtable
define hidden void @_ZN5osgeo4proj10BlockCache6insertEjjRKSt6vectorIhSaIhEE(ptr noundef nonnull align 8 dereferenceable(112) %0, i32 noundef %1, i32 noundef %2, ptr noundef nonnull align 8 dereferenceable(24) %3) local_unnamed_addr #2 align 2 {
  %5 = alloca i64, align 8
  call void @llvm.lifetime.start.p0(i64 8, ptr nonnull %5) #34
  %6 = zext i32 %1 to i64
  %7 = shl nuw i64 %6, 32
  %8 = zext i32 %2 to i64
  %9 = or disjoint i64 %7, %8
  store i64 %9, ptr %5, align 8, !tbaa !29
  call void @_ZN5osgeo4proj5lru115CacheImSt6vectorIhSaIhEENS1_8NullLockESt13unordered_mapImSt14_List_iteratorINS1_12KeyValuePairImS5_EEESt4hashImESt8equal_toImESaISt4pairIKmSB_EEEE6insertERSH_RKS5_(ptr noundef nonnull align 8 dereferenceable(112) %0, ptr noundef nonnull align 8 dereferenceable(8) %5, ptr noundef nonnull align 8 dereferenceable(24) %3)
  call void @llvm.lifetime.end.p0(i64 8, ptr nonnull %5) #34
  ret void
}